target datalayout = "e-m:e-p270:32:32-p271:32:32-p272:64:64-i64:64-i128:128-f80:128-n8:16:32:64-S128"
target triple = "x86_64-pc-linux-gnu"

%struct.Curl_cfilter = type { ptr, ptr, ptr, ptr, i32, i8 }
%struct.cf_call_data = type { ptr }
%struct.cf_h2_proxy_ctx = type { ptr, %struct.cf_call_data, %struct.bufq, %struct.bufq, %struct.tunnel_stream, i32, i32, i8 }
%struct.bufq = type { ptr, ptr, ptr, ptr, i64, i64, i64, i32 }
%struct.tunnel_stream = type { ptr, %struct.bufq, %struct.bufq, ptr, i32, i32, i32, i8 }

@Curl_cfree = external global ptr, align 8

; Function Attrs: nounwind uwtable
define internal void @tunnel_stream_clear(ptr noundef %0) #0 {
  %2 = alloca ptr, align 8
  store ptr %0, ptr %2, align 8, !tbaa !23
  %3 = load ptr, ptr %2, align 8, !tbaa !23
  %4 = getelementptr inbounds nuw %struct.tunnel_stream, ptr %3, i32 0, i32 0
  %5 = load ptr, ptr %4, align 8, !tbaa !155
  call void @Curl_http_resp_free(ptr noundef %5)
  %6 = load ptr, ptr %2, align 8, !tbaa !23
  %7 = getelementptr inbounds nuw %struct.tunnel_stream, ptr %6, i32 0, i32 1
  call void @Curl_bufq_free(ptr noundef %7)
  %8 = load ptr, ptr %2, align 8, !tbaa !23
  %9 = getelementptr inbounds nuw %struct.tunnel_stream, ptr %8, i32 0, i32 2
  call void @Curl_bufq_free(ptr noundef %9)
  br label %10

10:                                               ; preds = %1
  %11 = load ptr, ptr @Curl_cfree, align 8, !tbaa !116
  %12 = load ptr, ptr %2, align 8, !tbaa !23
  %13 = getelementptr inbounds nuw %struct.tunnel_stream, ptr %12, i32 0, i32 3
  %14 = load ptr, ptr %13, align 8, !tbaa !127
  call void %11(ptr noundef %14)
  %15 = load ptr, ptr %2, align 8, !tbaa !23
  %16 = getelementptr inbounds nuw %struct.tunnel_stream, ptr %15, i32 0, i32 3
  store ptr null, ptr %16, align 8, !tbaa !127
  br label %17

17:                                               ; preds = %10
  %18 = load ptr, ptr %2, align 8, !tbaa !23
  call void @llvm.memset.p0.i64(ptr align 8 %18, i8 0, i64 160, i1 false)
  %19 = load ptr, ptr %2, align 8, !tbaa !23
  %20 = getelementptr inbounds nuw %struct.tunnel_stream, ptr %19, i32 0, i32 6
  store i32 0, ptr %20, align 8, !tbaa !42
  ret void
}

; Function Attrs: nounwind uwtable
define internal void @cf_h2_proxy_ctx_clear(ptr noundef %0) #0 {
  %2 = alloca ptr, align 8
  %3 = alloca %struct.cf_call_data, align 8
  store ptr %0, ptr %2, align 8, !tbaa !16
  call void @llvm.lifetime.start.p0(i64 8, ptr %3) #6
  %4 = load ptr, ptr %2, align 8, !tbaa !16
  %5 = getelementptr inbounds nuw %struct.cf_h2_proxy_ctx, ptr %4, i32 0, i32 1
  call void @llvm.memcpy.p0.p0.i64(ptr align 8 %3, ptr align 8 %5, i64 8, i1 false), !tbaa.struct !28
  %6 = load ptr, ptr %2, align 8, !tbaa !16
  %7 = getelementptr inbounds nuw %struct.cf_h2_proxy_ctx, ptr %6, i32 0, i32 0
  %8 = load ptr, ptr %7, align 8, !tbaa !40
  %9 = icmp ne ptr %8, null
  br i1 %9, label %10, label %14

10:                                               ; preds = %1
  %11 = load ptr, ptr %2, align 8, !tbaa !16
  %12 = getelementptr inbounds nuw %struct.cf_h2_proxy_ctx, ptr %11, i32 0, i32 0
  %13 = load ptr, ptr %12, align 8, !tbaa !40
  call void @nghttp2_session_del(ptr noundef %13)
  br label %14

14:                                               ; preds = %10, %1
  %15 = load ptr, ptr %2, align 8, !tbaa !16
  %16 = getelementptr inbounds nuw %struct.cf_h2_proxy_ctx, ptr %15, i32 0, i32 2
  call void @Curl_bufq_free(ptr noundef %16)
  %17 = load ptr, ptr %2, align 8, !tbaa !16
  %18 = getelementptr inbounds nuw %struct.cf_h2_proxy_ctx, ptr %17, i32 0, i32 3
  call void @Curl_bufq_free(ptr noundef %18)
  %19 = load ptr, ptr %2, align 8, !tbaa !16
  %20 = getelementptr inbounds nuw %struct.cf_h2_proxy_ctx, ptr %19, i32 0, i32 4
  call void @tunnel_stream_clear(ptr noundef %20)
  %21 = load ptr, ptr %2, align 8, !tbaa !16
  call void @llvm.memset.p0.i64(ptr align 8 %21, i8 0, i64 320, i1 false)
  %22 = load ptr, ptr %2, align 8, !tbaa !16
  %23 = getelementptr inbounds nuw %struct.cf_h2_proxy_ctx, ptr %22, i32 0, i32 1
  call void @llvm.memcpy.p0.p0.i64(ptr align 8 %23, ptr align 8 %3, i64 8, i1 false), !tbaa.struct !28
  call void @llvm.lifetime.end.p0(i64 8, ptr %3) #6
  ret void
}

; Function Attrs: nounwind uwtable
define internal void @cf_h2_proxy_ctx_free(ptr noundef %0) #0 {
  %2 = alloca ptr, align 8
  store ptr %0, ptr %2, align 8, !tbaa !16
  %3 = load ptr, ptr %2, align 8, !tbaa !16
  %4 = icmp ne ptr %3, null
  br i1 %4, label %5, label %9

5:                                                ; preds = %1
  %6 = load ptr, ptr %2, align 8, !tbaa !16
  call void @cf_h2_proxy_ctx_clear(ptr noundef %6)
  %7 = load ptr, ptr @Curl_cfree, align 8, !tbaa !116
  %8 = load ptr, ptr %2, align 8, !tbaa !16
  call void %7(ptr noundef %8)
  br label %9

9:                                                ; preds = %5, %1
  ret void
}

; Function Attrs: nounwind uwtable
define internal void @cf_h2_proxy_destroy(ptr noundef %0, ptr noundef %1) #0 {
  %3 = alloca ptr, align 8
  %4 = alloca ptr, align 8
  %5 = alloca ptr, align 8
  store ptr %0, ptr %3, align 8, !tbaa !4
  store ptr %1, ptr %4, align 8, !tbaa !9
  call void @llvm.lifetime.start.p0(i64 8, ptr %5) #6
  %6 = load ptr, ptr %3, align 8, !tbaa !4
  %7 = getelementptr inbounds nuw %struct.Curl_cfilter, ptr %6, i32 0, i32 2
  %8 = load ptr, ptr %7, align 8, !tbaa !11
  store ptr %8, ptr %5, align 8, !tbaa !16
  %9 = load ptr, ptr %5, align 8, !tbaa !16
  %10 = icmp ne ptr %9, null
  br i1 %10, label %11, label %15

11:                                               ; preds = %2
  %12 = load ptr, ptr %5, align 8, !tbaa !16
  call void @cf_h2_proxy_ctx_free(ptr noundef %12)
  %13 = load ptr, ptr %3, align 8, !tbaa !4
  %14 = getelementptr inbounds nuw %struct.Curl_cfilter, ptr %13, i32 0, i32 2
  store ptr null, ptr %14, align 8, !tbaa !11
  br label %15

15:                                               ; preds = %11, %2
  call void @llvm.lifetime.end.p0(i64 8, ptr %5) #6
  ret void
}