; Function Attrs: nounwind uwtable
define internal void @cf_h2_proxy_destroy(ptr noundef captures(none) %0, ptr readnone captures(none) %1) #0 {
  %3 = getelementptr inbounds nuw i8, ptr %0, i64 16
  %4 = load ptr, ptr %3, align 8, !tbaa !4
  %.not = icmp eq ptr %4, null
  br i1 %.not, label %19, label %5

5:                                                ; preds = %2
  %6 = getelementptr inbounds nuw i8, ptr %4, i64 8
  %.sroa.0.0.copyload.i.i = load ptr, ptr %6, align 8, !tbaa !13
  %7 = load ptr, ptr %4, align 8, !tbaa !15
  %.not.i.i = icmp eq ptr %7, null
  br i1 %.not.i.i, label %cf_h2_proxy_ctx_free.exit, label %8

8:                                                ; preds = %5
  tail call void @nghttp2_session_del(ptr noundef nonnull %7) #7
  br label %cf_h2_proxy_ctx_free.exit

cf_h2_proxy_ctx_free.exit:                        ; preds = %5, %8
  %9 = getelementptr inbounds nuw i8, ptr %4, i64 16
  tail call void @Curl_bufq_free(ptr noundef nonnull %9) #7
  %10 = getelementptr inbounds nuw i8, ptr %4, i64 80
  tail call void @Curl_bufq_free(ptr noundef nonnull %10) #7
  %11 = getelementptr inbounds nuw i8, ptr %4, i64 144
  %12 = load ptr, ptr %11, align 8, !tbaa !26
  tail call void @Curl_http_resp_free(ptr noundef %12) #7
  %13 = getelementptr inbounds nuw i8, ptr %4, i64 152
  tail call void @Curl_bufq_free(ptr noundef nonnull %13) #7
  %14 = getelementptr inbounds nuw i8, ptr %4, i64 216
  tail call void @Curl_bufq_free(ptr noundef nonnull %14) #7
  %15 = load ptr, ptr @Curl_cfree, align 8, !tbaa !27
  %16 = getelementptr inbounds nuw i8, ptr %4, i64 280
  %17 = load ptr, ptr %16, align 8, !tbaa !28
  tail call void %15(ptr noundef %17) #7
  tail call void @llvm.memset.p0.i64(ptr noundef nonnull align 8 dereferenceable(320) %4, i8 0, i64 320, i1 false)
  store ptr %.sroa.0.0.copyload.i.i, ptr %6, align 8, !tbaa !13
  %18 = load ptr, ptr @Curl_cfree, align 8, !tbaa !27
  tail call void %18(ptr noundef nonnull %4) #7
  store ptr null, ptr %3, align 8, !tbaa !4
  br label %19

19:                                               ; preds = %cf_h2_proxy_ctx_free.exit, %2
  ret void
}